target datalayout = "e-m:e-p270:32:32-p271:32:32-p272:64:64-i64:64-i128:128-f80:128-n8:16:32:64-S128"
target triple = "x86_64-pc-linux-gnu"

@pg_data = internal global ptr null, align 8
@.str = private unnamed_addr constant [7 x i8] c"PGDATA\00", align 1
@.str.1 = private unnamed_addr constant [28 x i8] c"no data directory specified\00", align 1
@.str.2 = private unnamed_addr constant [167 x i8] c"You must identify the directory where the data for this database system will reside.  Do this with either the invocation option -D or the environment variable PGDATA.\00", align 1
@pgdata_native = internal global ptr null, align 8
@.str.3 = private unnamed_addr constant [26 x i8] c"could not set environment\00", align 1

; Function Attrs: nounwind uwtable
define dso_local void @setup_pgdata() #0 {
  %1 = alloca ptr, align 8
  call void @llvm.lifetime.start.p0(i64 8, ptr %1) #10
  %2 = load ptr, ptr @pg_data, align 8
  %3 = icmp ne ptr %2, null
  br i1 %3, label %17, label %4

4:                                                ; preds = %0
  %5 = call ptr @getenv(ptr noundef @.str) #10
  store ptr %5, ptr %1, align 8
  %6 = load ptr, ptr %1, align 8
  %7 = icmp ne ptr %6, null
  br i1 %7, label %8, label %15

8:                                                ; preds = %4
  %9 = load ptr, ptr %1, align 8
  %10 = call i64 @strlen(ptr noundef %9) #11
  %11 = icmp ne i64 %10, 0
  br i1 %11, label %12, label %15

12:                                               ; preds = %8
  %13 = load ptr, ptr %1, align 8
  %14 = call ptr @pg_strdup(ptr noundef %13)
  store ptr %14, ptr @pg_data, align 8
  br label %16

15:                                               ; preds = %8, %4
  call void (i32, i32, ptr, ...) @pg_log_generic(i32 noundef 4, i32 noundef 0, ptr noundef @.str.1)
  call void (i32, i32, ptr, ...) @pg_log_generic(i32 noundef 4, i32 noundef 2, ptr noundef @.str.2)
  call void @exit(i32 noundef 1) #12
  unreachable

16:                                               ; preds = %12
  br label %17

17:                                               ; preds = %16, %0
  %18 = load ptr, ptr @pg_data, align 8
  %19 = call ptr @pg_strdup(ptr noundef %18)
  store ptr %19, ptr @pgdata_native, align 8
  %20 = load ptr, ptr @pg_data, align 8
  call void @canonicalize_path(ptr noundef %20)
  %21 = load ptr, ptr @pg_data, align 8
  %22 = call i32 @setenv(ptr noundef @.str, ptr noundef %21, i32 noundef 1) #10
  %23 = icmp ne i32 %22, 0
  br i1 %23, label %24, label %28

24:                                               ; preds = %17
  br label %25

25:                                               ; preds = %24
  call void (i32, i32, ptr, ...) @pg_log_generic(i32 noundef 4, i32 noundef 0, ptr noundef @.str.3)
  call void @exit(i32 noundef 1) #12
  unreachable

26:                                               ; No predecessors!
  br label %27

27:                                               ; preds = %26
  br label %28

28:                                               ; preds = %27, %17
  call void @llvm.lifetime.end.p0(i64 8, ptr %1) #10
  ret void
}