; Function Attrs: nounwind uwtable
define dso_local void @setup_pgdata() local_unnamed_addr #0 {
  %1 = load ptr, ptr @pg_data, align 8
  %.not = icmp eq ptr %1, null
  br i1 %.not, label %2, label %8

2:                                                ; preds = %0
  %3 = tail call ptr @getenv(ptr noundef nonnull @.str) #19
  %.not3 = icmp eq ptr %3, null
  br i1 %.not3, label %7, label %4

4:                                                ; preds = %2
  %char0 = load i8, ptr %3, align 1
  %.not4 = icmp eq i8 %char0, 0
  br i1 %.not4, label %7, label %5

5:                                                ; preds = %4
  %6 = tail call ptr @pg_strdup(ptr noundef nonnull %3) #19
  store ptr %6, ptr @pg_data, align 8
  br label %8

7:                                                ; preds = %4, %2
  tail call void (i32, i32, ptr, ...) @pg_log_generic(i32 noundef 4, i32 noundef 0, ptr noundef nonnull @.str.1) #19
  tail call void (i32, i32, ptr, ...) @pg_log_generic(i32 noundef 4, i32 noundef 2, ptr noundef nonnull @.str.2) #19
  tail call void @exit(i32 noundef 1) #20
  unreachable

8:                                                ; preds = %5, %0
  %9 = phi ptr [ %6, %5 ], [ %1, %0 ]
  %10 = tail call ptr @pg_strdup(ptr noundef %9) #19
  store ptr %10, ptr @pgdata_native, align 8
  %11 = load ptr, ptr @pg_data, align 8
  tail call void @canonicalize_path(ptr noundef %11) #19
  %12 = load ptr, ptr @pg_data, align 8
  %13 = tail call i32 @setenv(ptr noundef nonnull @.str, ptr noundef %12, i32 noundef 1) #19
  %.not5 = icmp eq i32 %13, 0
  br i1 %.not5, label %15, label %14

14:                                               ; preds = %8
  tail call void (i32, i32, ptr, ...) @pg_log_generic(i32 noundef 4, i32 noundef 0, ptr noundef nonnull @.str.3) #19
  tail call void @exit(i32 noundef 1) #20
  unreachable

15:                                               ; preds = %8
  ret void
}